target datalayout = "e-m:e-p270:32:32-p271:32:32-p272:64:64-i64:64-i128:128-f80:128-n8:16:32:64-S128"
target triple = "x86_64-pc-linux-gnu"

%struct.timeval = type { i64, i64 }
%struct.evhttp = type { %struct.anon.9, %struct.boundq, %struct.httpcbq, %struct.evconq, %struct.evwsq, i32, i32, %struct.vhostsq, %struct.aliasq, ptr, %struct.timeval, %struct.timeval, i64, i64, i32, ptr, i32, ptr, ptr, ptr, ptr, ptr, ptr, ptr, ptr, ptr, ptr }
%struct.anon.9 = type { ptr, ptr }
%struct.boundq = type { ptr, ptr }
%struct.httpcbq = type { ptr, ptr }
%struct.evconq = type { ptr, ptr }
%struct.evwsq = type { ptr, ptr }
%struct.vhostsq = type { ptr, ptr }
%struct.aliasq = type { ptr, ptr }
%struct.evhttp_bound_socket = type { %struct.anon.11, ptr, ptr, ptr, ptr }
%struct.anon.11 = type { ptr, ptr }
%struct.evhttp_cb = type { %struct.anon.12, ptr, ptr, ptr }
%struct.anon.12 = type { ptr, ptr }
%struct.evhttp_server_alias = type { %struct.anon.13, ptr }
%struct.anon.13 = type { ptr, ptr }

; Function Attrs: nounwind uwtable
define void @evhttp_free(ptr noundef %0) #0 {
  %2 = alloca ptr, align 8
  %3 = alloca ptr, align 8
  %4 = alloca ptr, align 8
  %5 = alloca ptr, align 8
  %6 = alloca ptr, align 8
  %7 = alloca ptr, align 8
  %8 = alloca ptr, align 8
  store ptr %0, ptr %2, align 8
  call void @llvm.lifetime.start.p0(i64 8, ptr %3) #11
  call void @llvm.lifetime.start.p0(i64 8, ptr %4) #11
  call void @llvm.lifetime.start.p0(i64 8, ptr %5) #11
  call void @llvm.lifetime.start.p0(i64 8, ptr %6) #11
  call void @llvm.lifetime.start.p0(i64 8, ptr %7) #11
  call void @llvm.lifetime.start.p0(i64 8, ptr %8) #11
  br label %9

9:                                                ; preds = %51, %1
  %10 = load ptr, ptr %2, align 8
  %11 = getelementptr inbounds nuw %struct.evhttp, ptr %10, i32 0, i32 1
  %12 = getelementptr inbounds nuw %struct.boundq, ptr %11, i32 0, i32 0
  %13 = load ptr, ptr %12, align 8
  store ptr %13, ptr %6, align 8
  %14 = icmp ne ptr %13, null
  br i1 %14, label %15, label %56

15:                                               ; preds = %9
  br label %16

16:                                               ; preds = %15
  %17 = load ptr, ptr %6, align 8
  %18 = getelementptr inbounds nuw %struct.evhttp_bound_socket, ptr %17, i32 0, i32 0
  %19 = getelementptr inbounds nuw %struct.anon.11, ptr %18, i32 0, i32 0
  %20 = load ptr, ptr %19, align 8
  %21 = icmp ne ptr %20, null
  br i1 %21, label %22, label %33

22:                                               ; preds = %16
  %23 = load ptr, ptr %6, align 8
  %24 = getelementptr inbounds nuw %struct.evhttp_bound_socket, ptr %23, i32 0, i32 0
  %25 = getelementptr inbounds nuw %struct.anon.11, ptr %24, i32 0, i32 1
  %26 = load ptr, ptr %25, align 8
  %27 = load ptr, ptr %6, align 8
  %28 = getelementptr inbounds nuw %struct.evhttp_bound_socket, ptr %27, i32 0, i32 0
  %29 = getelementptr inbounds nuw %struct.anon.11, ptr %28, i32 0, i32 0
  %30 = load ptr, ptr %29, align 8
  %31 = getelementptr inbounds nuw %struct.evhttp_bound_socket, ptr %30, i32 0, i32 0
  %32 = getelementptr inbounds nuw %struct.anon.11, ptr %31, i32 0, i32 1
  store ptr %26, ptr %32, align 8
  br label %41

33:                                               ; preds = %16
  %34 = load ptr, ptr %6, align 8
  %35 = getelementptr inbounds nuw %struct.evhttp_bound_socket, ptr %34, i32 0, i32 0
  %36 = getelementptr inbounds nuw %struct.anon.11, ptr %35, i32 0, i32 1
  %37 = load ptr, ptr %36, align 8
  %38 = load ptr, ptr %2, align 8
  %39 = getelementptr inbounds nuw %struct.evhttp, ptr %38, i32 0, i32 1
  %40 = getelementptr inbounds nuw %struct.boundq, ptr %39, i32 0, i32 1
  store ptr %37, ptr %40, align 8
  br label %41

41:                                               ; preds = %33, %22
  %42 = load ptr, ptr %6, align 8
  %43 = getelementptr inbounds nuw %struct.evhttp_bound_socket, ptr %42, i32 0, i32 0
  %44 = getelementptr inbounds nuw %struct.anon.11, ptr %43, i32 0, i32 0
  %45 = load ptr, ptr %44, align 8
  %46 = load ptr, ptr %6, align 8
  %47 = getelementptr inbounds nuw %struct.evhttp_bound_socket, ptr %46, i32 0, i32 0
  %48 = getelementptr inbounds nuw %struct.anon.11, ptr %47, i32 0, i32 1
  %49 = load ptr, ptr %48, align 8
  store ptr %45, ptr %49, align 8
  br label %50

50:                                               ; preds = %41
  br label %51

51:                                               ; preds = %50
  %52 = load ptr, ptr %6, align 8
  %53 = getelementptr inbounds nuw %struct.evhttp_bound_socket, ptr %52, i32 0, i32 4
  %54 = load ptr, ptr %53, align 8
  call void @evconnlistener_free(ptr noundef %54)
  %55 = load ptr, ptr %6, align 8
  call void @event_mm_free_(ptr noundef %55)
  br label %9, !llvm.loop !22

56:                                               ; preds = %9
  br label %57

57:                                               ; preds = %63, %56
  %58 = load ptr, ptr %2, align 8
  %59 = getelementptr inbounds nuw %struct.evhttp, ptr %58, i32 0, i32 3
  %60 = getelementptr inbounds nuw %struct.evconq, ptr %59, i32 0, i32 0
  %61 = load ptr, ptr %60, align 8
  store ptr %61, ptr %4, align 8
  %62 = icmp ne ptr %61, null
  br i1 %62, label %63, label %65

63:                                               ; preds = %57
  %64 = load ptr, ptr %4, align 8
  call void @evhttp_connection_free(ptr noundef %64)
  br label %57, !llvm.loop !23

65:                                               ; preds = %57
  br label %66

66:                                               ; preds = %72, %65
  %67 = load ptr, ptr %2, align 8
  %68 = getelementptr inbounds nuw %struct.evhttp, ptr %67, i32 0, i32 4
  %69 = getelementptr inbounds nuw %struct.evwsq, ptr %68, i32 0, i32 0
  %70 = load ptr, ptr %69, align 8
  store ptr %70, ptr %5, align 8
  %71 = icmp ne ptr %70, null
  br i1 %71, label %72, label %74

72:                                               ; preds = %66
  %73 = load ptr, ptr %5, align 8
  call void @evws_connection_free(ptr noundef %73)
  br label %66, !llvm.loop !24

74:                                               ; preds = %66
  br label %75

75:                                               ; preds = %117, %74
  %76 = load ptr, ptr %2, align 8
  %77 = getelementptr inbounds nuw %struct.evhttp, ptr %76, i32 0, i32 2
  %78 = getelementptr inbounds nuw %struct.httpcbq, ptr %77, i32 0, i32 0
  %79 = load ptr, ptr %78, align 8
  store ptr %79, ptr %3, align 8
  %80 = icmp ne ptr %79, null
  br i1 %80, label %81, label %122

81:                                               ; preds = %75
  br label %82

82:                                               ; preds = %81
  %83 = load ptr, ptr %3, align 8
  %84 = getelementptr inbounds nuw %struct.evhttp_cb, ptr %83, i32 0, i32 0
  %85 = getelementptr inbounds nuw %struct.anon.12, ptr %84, i32 0, i32 0
  %86 = load ptr, ptr %85, align 8
  %87 = icmp ne ptr %86, null
  br i1 %87, label %88, label %99

88:                                               ; preds = %82
  %89 = load ptr, ptr %3, align 8
  %90 = getelementptr inbounds nuw %struct.evhttp_cb, ptr %89, i32 0, i32 0
  %91 = getelementptr inbounds nuw %struct.anon.12, ptr %90, i32 0, i32 1
  %92 = load ptr, ptr %91, align 8
  %93 = load ptr, ptr %3, align 8
  %94 = getelementptr inbounds nuw %struct.evhttp_cb, ptr %93, i32 0, i32 0
  %95 = getelementptr inbounds nuw %struct.anon.12, ptr %94, i32 0, i32 0
  %96 = load ptr, ptr %95, align 8
  %97 = getelementptr inbounds nuw %struct.evhttp_cb, ptr %96, i32 0, i32 0
  %98 = getelementptr inbounds nuw %struct.anon.12, ptr %97, i32 0, i32 1
  store ptr %92, ptr %98, align 8
  br label %107

99:                                               ; preds = %82
  %100 = load ptr, ptr %3, align 8
  %101 = getelementptr inbounds nuw %struct.evhttp_cb, ptr %100, i32 0, i32 0
  %102 = getelementptr inbounds nuw %struct.anon.12, ptr %101, i32 0, i32 1
  %103 = load ptr, ptr %102, align 8
  %104 = load ptr, ptr %2, align 8
  %105 = getelementptr inbounds nuw %struct.evhttp, ptr %104, i32 0, i32 2
  %106 = getelementptr inbounds nuw %struct.httpcbq, ptr %105, i32 0, i32 1
  store ptr %103, ptr %106, align 8
  br label %107

107:                                              ; preds = %99, %88
  %108 = load ptr, ptr %3, align 8
  %109 = getelementptr inbounds nuw %struct.evhttp_cb, ptr %108, i32 0, i32 0
  %110 = getelementptr inbounds nuw %struct.anon.12, ptr %109, i32 0, i32 0
  %111 = load ptr, ptr %110, align 8
  %112 = load ptr, ptr %3, align 8
  %113 = getelementptr inbounds nuw %struct.evhttp_cb, ptr %112, i32 0, i32 0
  %114 = getelementptr inbounds nuw %struct.anon.12, ptr %113, i32 0, i32 1
  %115 = load ptr, ptr %114, align 8
  store ptr %111, ptr %115, align 8
  br label %116

116:                                              ; preds = %107
  br label %117

117:                                              ; preds = %116
  %118 = load ptr, ptr %3, align 8
  %119 = getelementptr inbounds nuw %struct.evhttp_cb, ptr %118, i32 0, i32 1
  %120 = load ptr, ptr %119, align 8
  call void @event_mm_free_(ptr noundef %120)
  %121 = load ptr, ptr %3, align 8
  call void @event_mm_free_(ptr noundef %121)
  br label %75, !llvm.loop !25

122:                                              ; preds = %75
  br label %123

123:                                              ; preds = %165, %122
  %124 = load ptr, ptr %2, align 8
  %125 = getelementptr inbounds nuw %struct.evhttp, ptr %124, i32 0, i32 7
  %126 = getelementptr inbounds nuw %struct.vhostsq, ptr %125, i32 0, i32 0
  %127 = load ptr, ptr %126, align 8
  store ptr %127, ptr %7, align 8
  %128 = icmp ne ptr %127, null
  br i1 %128, label %129, label %167

129:                                              ; preds = %123
  br label %130

130:                                              ; preds = %129
  %131 = load ptr, ptr %7, align 8
  %132 = getelementptr inbounds nuw %struct.evhttp, ptr %131, i32 0, i32 0
  %133 = getelementptr inbounds nuw %struct.anon.9, ptr %132, i32 0, i32 0
  %134 = load ptr, ptr %133, align 8
  %135 = icmp ne ptr %134, null
  br i1 %135, label %136, label %147

136:                                              ; preds = %130
  %137 = load ptr, ptr %7, align 8
  %138 = getelementptr inbounds nuw %struct.evhttp, ptr %137, i32 0, i32 0
  %139 = getelementptr inbounds nuw %struct.anon.9, ptr %138, i32 0, i32 1
  %140 = load ptr, ptr %139, align 8
  %141 = load ptr, ptr %7, align 8
  %142 = getelementptr inbounds nuw %struct.evhttp, ptr %141, i32 0, i32 0
  %143 = getelementptr inbounds nuw %struct.anon.9, ptr %142, i32 0, i32 0
  %144 = load ptr, ptr %143, align 8
  %145 = getelementptr inbounds nuw %struct.evhttp, ptr %144, i32 0, i32 0
  %146 = getelementptr inbounds nuw %struct.anon.9, ptr %145, i32 0, i32 1
  store ptr %140, ptr %146, align 8
  br label %155

147:                                              ; preds = %130
  %148 = load ptr, ptr %7, align 8
  %149 = getelementptr inbounds nuw %struct.evhttp, ptr %148, i32 0, i32 0
  %150 = getelementptr inbounds nuw %struct.anon.9, ptr %149, i32 0, i32 1
  %151 = load ptr, ptr %150, align 8
  %152 = load ptr, ptr %2, align 8
  %153 = getelementptr inbounds nuw %struct.evhttp, ptr %152, i32 0, i32 7
  %154 = getelementptr inbounds nuw %struct.vhostsq, ptr %153, i32 0, i32 1
  store ptr %151, ptr %154, align 8
  br label %155

155:                                              ; preds = %147, %136
  %156 = load ptr, ptr %7, align 8
  %157 = getelementptr inbounds nuw %struct.evhttp, ptr %156, i32 0, i32 0
  %158 = getelementptr inbounds nuw %struct.anon.9, ptr %157, i32 0, i32 0
  %159 = load ptr, ptr %158, align 8
  %160 = load ptr, ptr %7, align 8
  %161 = getelementptr inbounds nuw %struct.evhttp, ptr %160, i32 0, i32 0
  %162 = getelementptr inbounds nuw %struct.anon.9, ptr %161, i32 0, i32 1
  %163 = load ptr, ptr %162, align 8
  store ptr %159, ptr %163, align 8
  br label %164

164:                                              ; preds = %155
  br label %165

165:                                              ; preds = %164
  %166 = load ptr, ptr %7, align 8
  call void @evhttp_free(ptr noundef %166)
  br label %123, !llvm.loop !26

167:                                              ; preds = %123
  %168 = load ptr, ptr %2, align 8
  %169 = getelementptr inbounds nuw %struct.evhttp, ptr %168, i32 0, i32 9
  %170 = load ptr, ptr %169, align 8
  %171 = icmp ne ptr %170, null
  br i1 %171, label %172, label %176

172:                                              ; preds = %167
  %173 = load ptr, ptr %2, align 8
  %174 = getelementptr inbounds nuw %struct.evhttp, ptr %173, i32 0, i32 9
  %175 = load ptr, ptr %174, align 8
  call void @event_mm_free_(ptr noundef %175)
  br label %176

176:                                              ; preds = %172, %167
  br label %177

177:                                              ; preds = %219, %176
  %178 = load ptr, ptr %2, align 8
  %179 = getelementptr inbounds nuw %struct.evhttp, ptr %178, i32 0, i32 8
  %180 = getelementptr inbounds nuw %struct.aliasq, ptr %179, i32 0, i32 0
  %181 = load ptr, ptr %180, align 8
  store ptr %181, ptr %8, align 8
  %182 = icmp ne ptr %181, null
  br i1 %182, label %183, label %224

183:                                              ; preds = %177
  br label %184

184:                                              ; preds = %183
  %185 = load ptr, ptr %8, align 8
  %186 = getelementptr inbounds nuw %struct.evhttp_server_alias, ptr %185, i32 0, i32 0
  %187 = getelementptr inbounds nuw %struct.anon.13, ptr %186, i32 0, i32 0
  %188 = load ptr, ptr %187, align 8
  %189 = icmp ne ptr %188, null
  br i1 %189, label %190, label %201

190:                                              ; preds = %184
  %191 = load ptr, ptr %8, align 8
  %192 = getelementptr inbounds nuw %struct.evhttp_server_alias, ptr %191, i32 0, i32 0
  %193 = getelementptr inbounds nuw %struct.anon.13, ptr %192, i32 0, i32 1
  %194 = load ptr, ptr %193, align 8
  %195 = load ptr, ptr %8, align 8
  %196 = getelementptr inbounds nuw %struct.evhttp_server_alias, ptr %195, i32 0, i32 0
  %197 = getelementptr inbounds nuw %struct.anon.13, ptr %196, i32 0, i32 0
  %198 = load ptr, ptr %197, align 8
  %199 = getelementptr inbounds nuw %struct.evhttp_server_alias, ptr %198, i32 0, i32 0
  %200 = getelementptr inbounds nuw %struct.anon.13, ptr %199, i32 0, i32 1
  store ptr %194, ptr %200, align 8
  br label %209

201:                                              ; preds = %184
  %202 = load ptr, ptr %8, align 8
  %203 = getelementptr inbounds nuw %struct.evhttp_server_alias, ptr %202, i32 0, i32 0
  %204 = getelementptr inbounds nuw %struct.anon.13, ptr %203, i32 0, i32 1
  %205 = load ptr, ptr %204, align 8
  %206 = load ptr, ptr %2, align 8
  %207 = getelementptr inbounds nuw %struct.evhttp, ptr %206, i32 0, i32 8
  %208 = getelementptr inbounds nuw %struct.aliasq, ptr %207, i32 0, i32 1
  store ptr %205, ptr %208, align 8
  br label %209

209:                                              ; preds = %201, %190
  %210 = load ptr, ptr %8, align 8
  %211 = getelementptr inbounds nuw %struct.evhttp_server_alias, ptr %210, i32 0, i32 0
  %212 = getelementptr inbounds nuw %struct.anon.13, ptr %211, i32 0, i32 0
  %213 = load ptr, ptr %212, align 8
  %214 = load ptr, ptr %8, align 8
  %215 = getelementptr inbounds nuw %struct.evhttp_server_alias, ptr %214, i32 0, i32 0
  %216 = getelementptr inbounds nuw %struct.anon.13, ptr %215, i32 0, i32 1
  %217 = load ptr, ptr %216, align 8
  store ptr %213, ptr %217, align 8
  br label %218

218:                                              ; preds = %209
  br label %219

219:                                              ; preds = %218
  %220 = load ptr, ptr %8, align 8
  %221 = getelementptr inbounds nuw %struct.evhttp_server_alias, ptr %220, i32 0, i32 1
  %222 = load ptr, ptr %221, align 8
  call void @event_mm_free_(ptr noundef %222)
  %223 = load ptr, ptr %8, align 8
  call void @event_mm_free_(ptr noundef %223)
  br label %177, !llvm.loop !27

224:                                              ; preds = %177
  %225 = load ptr, ptr %2, align 8
  call void @event_mm_free_(ptr noundef %225)
  call void @llvm.lifetime.end.p0(i64 8, ptr %8) #11
  call void @llvm.lifetime.end.p0(i64 8, ptr %7) #11
  call void @llvm.lifetime.end.p0(i64 8, ptr %6) #11
  call void @llvm.lifetime.end.p0(i64 8, ptr %5) #11
  call void @llvm.lifetime.end.p0(i64 8, ptr %4) #11
  call void @llvm.lifetime.end.p0(i64 8, ptr %3) #11
  ret void
}