; Function Attrs: nounwind uwtable
define void @evhttp_free(ptr noundef %0) local_unnamed_addr #0 {
  %2 = getelementptr inbounds nuw i8, ptr %0, i64 16
  %3 = load ptr, ptr %2, align 8
  %.not69 = icmp eq ptr %3, null
  br i1 %.not69, label %.preheader68, label %.lr.ph

.lr.ph:                                           ; preds = %1
  %4 = getelementptr inbounds nuw i8, ptr %0, i64 24
  br label %7

.preheader68:                                     ; preds = %15, %1
  %5 = getelementptr inbounds nuw i8, ptr %0, i64 48
  %6 = load ptr, ptr %5, align 8
  %.not5670 = icmp eq ptr %6, null
  br i1 %.not5670, label %.preheader67, label %.lr.ph71

7:                                                ; preds = %.lr.ph, %15
  %8 = phi ptr [ %3, %.lr.ph ], [ %19, %15 ]
  %9 = load ptr, ptr %8, align 8
  %.not65 = icmp eq ptr %9, null
  %10 = getelementptr inbounds nuw i8, ptr %8, i64 8
  %11 = load ptr, ptr %10, align 8
  br i1 %.not65, label %14, label %12

12:                                               ; preds = %7
  %13 = getelementptr inbounds nuw i8, ptr %9, i64 8
  store ptr %11, ptr %13, align 8
  br label %15

14:                                               ; preds = %7
  store ptr %11, ptr %4, align 8
  br label %15

15:                                               ; preds = %14, %12
  %16 = load ptr, ptr %8, align 8
  store ptr %16, ptr %11, align 8
  %17 = getelementptr inbounds nuw i8, ptr %8, i64 40
  %18 = load ptr, ptr %17, align 8
  tail call void @evconnlistener_free(ptr noundef %18) #18
  tail call void @event_mm_free_(ptr noundef nonnull %8) #18
  %19 = load ptr, ptr %2, align 8
  %.not = icmp eq ptr %19, null
  br i1 %.not, label %.preheader68, label %7, !llvm.loop !23

.preheader67:                                     ; preds = %.lr.ph71, %.preheader68
  %20 = getelementptr inbounds nuw i8, ptr %0, i64 64
  %21 = load ptr, ptr %20, align 8
  %.not5772 = icmp eq ptr %21, null
  br i1 %.not5772, label %.preheader66, label %.lr.ph73

.lr.ph71:                                         ; preds = %.preheader68, %.lr.ph71
  %22 = phi ptr [ %23, %.lr.ph71 ], [ %6, %.preheader68 ]
  tail call void @evhttp_connection_free(ptr noundef nonnull %22)
  %23 = load ptr, ptr %5, align 8
  %.not56 = icmp eq ptr %23, null
  br i1 %.not56, label %.preheader67, label %.lr.ph71, !llvm.loop !24

.preheader66:                                     ; preds = %.lr.ph73, %.preheader67
  %24 = getelementptr inbounds nuw i8, ptr %0, i64 32
  %25 = load ptr, ptr %24, align 8
  %.not5874 = icmp eq ptr %25, null
  br i1 %.not5874, label %.preheader, label %.lr.ph75

.lr.ph75:                                         ; preds = %.preheader66
  %26 = getelementptr inbounds nuw i8, ptr %0, i64 40
  br label %32

.lr.ph73:                                         ; preds = %.preheader67, %.lr.ph73
  %27 = phi ptr [ %28, %.lr.ph73 ], [ %21, %.preheader67 ]
  tail call void @evws_connection_free(ptr noundef nonnull %27) #18
  %28 = load ptr, ptr %20, align 8
  %.not57 = icmp eq ptr %28, null
  br i1 %.not57, label %.preheader66, label %.lr.ph73, !llvm.loop !25

.preheader:                                       ; preds = %40, %.preheader66
  %29 = getelementptr inbounds nuw i8, ptr %0, i64 88
  %30 = load ptr, ptr %29, align 8
  %.not5976 = icmp eq ptr %30, null
  br i1 %.not5976, label %._crit_edge, label %.lr.ph77

.lr.ph77:                                         ; preds = %.preheader
  %31 = getelementptr inbounds nuw i8, ptr %0, i64 96
  br label %45

32:                                               ; preds = %.lr.ph75, %40
  %33 = phi ptr [ %25, %.lr.ph75 ], [ %44, %40 ]
  %34 = load ptr, ptr %33, align 8
  %.not64 = icmp eq ptr %34, null
  %35 = getelementptr inbounds nuw i8, ptr %33, i64 8
  %36 = load ptr, ptr %35, align 8
  br i1 %.not64, label %39, label %37

37:                                               ; preds = %32
  %38 = getelementptr inbounds nuw i8, ptr %34, i64 8
  store ptr %36, ptr %38, align 8
  br label %40

39:                                               ; preds = %32
  store ptr %36, ptr %26, align 8
  br label %40

40:                                               ; preds = %39, %37
  %41 = load ptr, ptr %33, align 8
  store ptr %41, ptr %36, align 8
  %42 = getelementptr inbounds nuw i8, ptr %33, i64 16
  %43 = load ptr, ptr %42, align 8
  tail call void @event_mm_free_(ptr noundef %43) #18
  tail call void @event_mm_free_(ptr noundef nonnull %33) #18
  %44 = load ptr, ptr %24, align 8
  %.not58 = icmp eq ptr %44, null
  br i1 %.not58, label %.preheader, label %32, !llvm.loop !26

45:                                               ; preds = %.lr.ph77, %53
  %46 = phi ptr [ %30, %.lr.ph77 ], [ %55, %53 ]
  %47 = load ptr, ptr %46, align 8
  %.not63 = icmp eq ptr %47, null
  %48 = getelementptr inbounds nuw i8, ptr %46, i64 8
  %49 = load ptr, ptr %48, align 8
  br i1 %.not63, label %52, label %50

50:                                               ; preds = %45
  %51 = getelementptr inbounds nuw i8, ptr %47, i64 8
  store ptr %49, ptr %51, align 8
  br label %53

52:                                               ; preds = %45
  store ptr %49, ptr %31, align 8
  br label %53

53:                                               ; preds = %52, %50
  %54 = load ptr, ptr %46, align 8
  store ptr %54, ptr %49, align 8
  tail call void @evhttp_free(ptr noundef nonnull %46)
  %55 = load ptr, ptr %29, align 8
  %.not59 = icmp eq ptr %55, null
  br i1 %.not59, label %._crit_edge, label %45, !llvm.loop !27

._crit_edge:                                      ; preds = %53, %.preheader
  %56 = getelementptr inbounds nuw i8, ptr %0, i64 120
  %57 = load ptr, ptr %56, align 8
  %.not60 = icmp eq ptr %57, null
  br i1 %.not60, label %59, label %58

58:                                               ; preds = %._crit_edge
  tail call void @event_mm_free_(ptr noundef nonnull %57) #18
  br label %59

59:                                               ; preds = %58, %._crit_edge
  %60 = getelementptr inbounds nuw i8, ptr %0, i64 104
  %61 = load ptr, ptr %60, align 8
  %.not6178 = icmp eq ptr %61, null
  br i1 %.not6178, label %._crit_edge81, label %.lr.ph80

.lr.ph80:                                         ; preds = %59
  %62 = getelementptr inbounds nuw i8, ptr %0, i64 112
  br label %63

63:                                               ; preds = %.lr.ph80, %71
  %64 = phi ptr [ %61, %.lr.ph80 ], [ %75, %71 ]
  %65 = load ptr, ptr %64, align 8
  %.not62 = icmp eq ptr %65, null
  %66 = getelementptr inbounds nuw i8, ptr %64, i64 8
  %67 = load ptr, ptr %66, align 8
  br i1 %.not62, label %70, label %68

68:                                               ; preds = %63
  %69 = getelementptr inbounds nuw i8, ptr %65, i64 8
  store ptr %67, ptr %69, align 8
  br label %71

70:                                               ; preds = %63
  store ptr %67, ptr %62, align 8
  br label %71

71:                                               ; preds = %70, %68
  %72 = load ptr, ptr %64, align 8
  store ptr %72, ptr %67, align 8
  %73 = getelementptr inbounds nuw i8, ptr %64, i64 16
  %74 = load ptr, ptr %73, align 8
  tail call void @event_mm_free_(ptr noundef %74) #18
  tail call void @event_mm_free_(ptr noundef nonnull %64) #18
  %75 = load ptr, ptr %60, align 8
  %.not61 = icmp eq ptr %75, null
  br i1 %.not61, label %._crit_edge81, label %63, !llvm.loop !28

._crit_edge81:                                    ; preds = %71, %59
  tail call void @event_mm_free_(ptr noundef nonnull %0) #18
  ret void
}